target datalayout = "e-m:e-p270:32:32-p271:32:32-p272:64:64-i64:64-i128:128-f80:128-n8:16:32:64-S128"
target triple = "x86_64-pc-linux-gnu"

%"class.pxrInternal_v0_24__pxrReserved__::PcpPrimIndex" = type { %"class.pxrInternal_v0_24__pxrReserved__::TfRefPtr", %"class.std::vector", %"class.std::unique_ptr" }
%"class.pxrInternal_v0_24__pxrReserved__::TfRefPtr" = type { ptr }
%"class.std::vector" = type { %"struct.std::_Vector_base" }
%"struct.std::_Vector_base" = type { %"struct.std::_Vector_base<pxrInternal_v0_24__pxrReserved__::Pcp_CompressedSdSite, std::allocator<pxrInternal_v0_24__pxrReserved__::Pcp_CompressedSdSite>>::_Vector_impl" }
%"struct.std::_Vector_base<pxrInternal_v0_24__pxrReserved__::Pcp_CompressedSdSite, std::allocator<pxrInternal_v0_24__pxrReserved__::Pcp_CompressedSdSite>>::_Vector_impl" = type { %"struct.std::_Vector_base<pxrInternal_v0_24__pxrReserved__::Pcp_CompressedSdSite, std::allocator<pxrInternal_v0_24__pxrReserved__::Pcp_CompressedSdSite>>::_Vector_impl_data" }
%"struct.std::_Vector_base<pxrInternal_v0_24__pxrReserved__::Pcp_CompressedSdSite, std::allocator<pxrInternal_v0_24__pxrReserved__::Pcp_CompressedSdSite>>::_Vector_impl_data" = type { ptr, ptr, ptr }
%"class.std::unique_ptr" = type { %"struct.std::__uniq_ptr_data" }
%"struct.std::__uniq_ptr_data" = type { %"class.std::__uniq_ptr_impl" }
%"class.std::__uniq_ptr_impl" = type { %"class.std::tuple" }
%"class.std::tuple" = type { %"struct.std::_Tuple_impl" }
%"struct.std::_Tuple_impl" = type { %"struct.std::_Head_base.1" }
%"struct.std::_Head_base.1" = type { ptr }
%"class.pxrInternal_v0_24__pxrReserved__::PcpNodeRef" = type { ptr, i64 }
%"class.pxrInternal_v0_24__pxrReserved__::TfCallContext" = type <{ ptr, ptr, i64, ptr, i8, [7 x i8] }>
%"class.std::type_info" = type { ptr, ptr }

@.str.58 = private unnamed_addr constant [114 x i8] c"generated/home/dtcxzyw/WorkSpace/Projects/compilers/llvm-opt-benchmark/bench/openusd/OpenUSD/pxr/base/tf/refPtr.h\00", align 1
@__func__._ZNK32pxrInternal_v0_24__pxrReserved__8TfRefPtrINS_10Tf_RemnantEEptEv = private unnamed_addr constant [11 x i8] c"operator->\00", align 1
@_ZTIN32pxrInternal_v0_24__pxrReserved__8TfRefPtrINS_18PcpPrimIndex_GraphEEE = linkonce_odr constant { ptr, ptr } { ptr getelementptr inbounds (ptr, ptr @_ZTVN10__cxxabiv117__class_type_infoE, i64 2), ptr @_ZTSN32pxrInternal_v0_24__pxrReserved__8TfRefPtrINS_18PcpPrimIndex_GraphEEE }, comdat, align 8

; Function Attrs: mustprogress nounwind uwtable
define linkonce_odr noundef ptr @_ZNKSt9type_info4nameEv(ptr noundef nonnull align 8 dereferenceable(16) %0) #5 comdat align 2 {
  %2 = alloca ptr, align 8
  store ptr %0, ptr %2, align 8
  %3 = load ptr, ptr %2, align 8
  %4 = getelementptr inbounds nuw %"class.std::type_info", ptr %3, i32 0, i32 1
  %5 = load ptr, ptr %4, align 8
  %6 = getelementptr inbounds i8, ptr %5, i64 0
  %7 = load i8, ptr %6, align 1
  %8 = sext i8 %7 to i32
  %9 = icmp eq i32 %8, 42
  br i1 %9, label %10, label %14

10:                                               ; preds = %1
  %11 = getelementptr inbounds nuw %"class.std::type_info", ptr %3, i32 0, i32 1
  %12 = load ptr, ptr %11, align 8
  %13 = getelementptr inbounds i8, ptr %12, i64 1
  br label %17

14:                                               ; preds = %1
  %15 = getelementptr inbounds nuw %"class.std::type_info", ptr %3, i32 0, i32 1
  %16 = load ptr, ptr %15, align 8
  br label %17

17:                                               ; preds = %14, %10
  %18 = phi ptr [ %13, %10 ], [ %16, %14 ]
  ret ptr %18
}

; Function Attrs: mustprogress nounwind uwtable
define linkonce_odr void @_ZN32pxrInternal_v0_24__pxrReserved__13TfCallContextC2EPKcS2_mS2_(ptr noundef nonnull align 8 dereferenceable(33) %0, ptr noundef %1, ptr noundef %2, i64 noundef %3, ptr noundef %4) unnamed_addr #5 comdat align 2 {
  %6 = alloca ptr, align 8
  %7 = alloca ptr, align 8
  %8 = alloca ptr, align 8
  %9 = alloca i64, align 8
  %10 = alloca ptr, align 8
  store ptr %0, ptr %6, align 8
  store ptr %1, ptr %7, align 8
  store ptr %2, ptr %8, align 8
  store i64 %3, ptr %9, align 8
  store ptr %4, ptr %10, align 8
  %11 = load ptr, ptr %6, align 8
  %12 = getelementptr inbounds nuw %"class.pxrInternal_v0_24__pxrReserved__::TfCallContext", ptr %11, i32 0, i32 0
  %13 = load ptr, ptr %7, align 8
  store ptr %13, ptr %12, align 8
  %14 = getelementptr inbounds nuw %"class.pxrInternal_v0_24__pxrReserved__::TfCallContext", ptr %11, i32 0, i32 1
  %15 = load ptr, ptr %8, align 8
  store ptr %15, ptr %14, align 8
  %16 = getelementptr inbounds nuw %"class.pxrInternal_v0_24__pxrReserved__::TfCallContext", ptr %11, i32 0, i32 2
  %17 = load i64, ptr %9, align 8
  store i64 %17, ptr %16, align 8
  %18 = getelementptr inbounds nuw %"class.pxrInternal_v0_24__pxrReserved__::TfCallContext", ptr %11, i32 0, i32 3
  %19 = load ptr, ptr %10, align 8
  store ptr %19, ptr %18, align 8
  %20 = getelementptr inbounds nuw %"class.pxrInternal_v0_24__pxrReserved__::TfCallContext", ptr %11, i32 0, i32 4
  store i8 0, ptr %20, align 8
  ret void
}

; Function Attrs: mustprogress nounwind uwtable
define linkonce_odr void @_ZN32pxrInternal_v0_24__pxrReserved__10PcpNodeRefC2Ev(ptr noundef nonnull align 8 dereferenceable(16) %0) unnamed_addr #5 comdat align 2 {
  %2 = alloca ptr, align 8
  store ptr %0, ptr %2, align 8
  %3 = load ptr, ptr %2, align 8
  %4 = getelementptr inbounds nuw %"class.pxrInternal_v0_24__pxrReserved__::PcpNodeRef", ptr %3, i32 0, i32 0
  store ptr null, ptr %4, align 8
  %5 = getelementptr inbounds nuw %"class.pxrInternal_v0_24__pxrReserved__::PcpNodeRef", ptr %3, i32 0, i32 1
  store i64 -1, ptr %5, align 8
  ret void
}

; Function Attrs: mustprogress uwtable
define linkonce_odr noundef ptr @_ZNK32pxrInternal_v0_24__pxrReserved__8TfRefPtrINS_18PcpPrimIndex_GraphEEptEv(ptr noundef nonnull align 8 dereferenceable(8) %0) #4 comdat align 2 {
  %2 = alloca ptr, align 8
  %3 = alloca %"class.pxrInternal_v0_24__pxrReserved__::TfCallContext", align 8
  store ptr %0, ptr %2, align 8
  %4 = load ptr, ptr %2, align 8
  %5 = getelementptr inbounds nuw %"class.pxrInternal_v0_24__pxrReserved__::TfRefPtr", ptr %4, i32 0, i32 0
  %6 = load ptr, ptr %5, align 8
  %7 = icmp ne ptr %6, null
  br i1 %7, label %8, label %11

8:                                                ; preds = %1
  %9 = getelementptr inbounds nuw %"class.pxrInternal_v0_24__pxrReserved__::TfRefPtr", ptr %4, i32 0, i32 0
  %10 = load ptr, ptr %9, align 8
  ret ptr %10

11:                                               ; preds = %1
  call void @_ZN32pxrInternal_v0_24__pxrReserved__13TfCallContextC2EPKcS2_mS2_(ptr noundef nonnull align 8 dereferenceable(33) %3, ptr noundef @.str.58, ptr noundef @__func__._ZNK32pxrInternal_v0_24__pxrReserved__8TfRefPtrINS_10Tf_RemnantEEptEv, i64 noundef 936, ptr noundef @__PRETTY_FUNCTION__._ZNK32pxrInternal_v0_24__pxrReserved__8TfRefPtrINS_18PcpPrimIndex_GraphEEptEv)
  %12 = call noundef ptr @_ZNKSt9type_info4nameEv(ptr noundef nonnull align 8 dereferenceable(16) @_ZTIN32pxrInternal_v0_24__pxrReserved__8TfRefPtrINS_18PcpPrimIndex_GraphEEE) #3
  call void @_ZN32pxrInternal_v0_24__pxrReserved__40Tf_PostNullSmartPtrDereferenceFatalErrorERKNS_13TfCallContextEPKc(ptr noundef nonnull align 8 dereferenceable(33) %3, ptr noundef %12) #18
  unreachable
}

; Function Attrs: mustprogress nounwind uwtable
define linkonce_odr i64 @_ZNK32pxrInternal_v0_24__pxrReserved__8TfRefPtrINS_18PcpPrimIndex_GraphEEcvMS2_PKNS_9TfRefBaseEEv(ptr noundef nonnull align 8 dereferenceable(8) %0) #5 comdat align 2 {
  %2 = alloca ptr, align 8
  store ptr %0, ptr %2, align 8
  %3 = load ptr, ptr %2, align 8
  %4 = getelementptr inbounds nuw %"class.pxrInternal_v0_24__pxrReserved__::TfRefPtr", ptr %3, i32 0, i32 0
  %5 = load ptr, ptr %4, align 8
  %6 = icmp ne ptr %5, null
  %7 = select i1 %6, i64 0, i64 -1
  ret i64 %7
}

; Function Attrs: mustprogress uwtable
define { ptr, i64 } @_ZNK32pxrInternal_v0_24__pxrReserved__12PcpPrimIndex11GetRootNodeEv(ptr noundef nonnull align 8 dereferenceable(40) %0) #4 align 2 {
  %2 = alloca %"class.pxrInternal_v0_24__pxrReserved__::PcpNodeRef", align 8
  %3 = alloca ptr, align 8
  store ptr %0, ptr %3, align 8
  %4 = load ptr, ptr %3, align 8
  %5 = getelementptr inbounds nuw %"class.pxrInternal_v0_24__pxrReserved__::PcpPrimIndex", ptr %4, i32 0, i32 0
  %6 = call i64 @_ZNK32pxrInternal_v0_24__pxrReserved__8TfRefPtrINS_18PcpPrimIndex_GraphEEcvMS2_PKNS_9TfRefBaseEEv(ptr noundef nonnull align 8 dereferenceable(8) %5)
  %7 = icmp ne i64 %6, -1
  br i1 %7, label %8, label %16

8:                                                ; preds = %1
  %9 = getelementptr inbounds nuw %"class.pxrInternal_v0_24__pxrReserved__::PcpPrimIndex", ptr %4, i32 0, i32 0
  %10 = call noundef ptr @_ZNK32pxrInternal_v0_24__pxrReserved__8TfRefPtrINS_18PcpPrimIndex_GraphEEptEv(ptr noundef nonnull align 8 dereferenceable(8) %9)
  %11 = call { ptr, i64 } @_ZNK32pxrInternal_v0_24__pxrReserved__18PcpPrimIndex_Graph11GetRootNodeEv(ptr noundef nonnull align 8 dereferenceable(57) %10)
  %12 = getelementptr inbounds nuw { ptr, i64 }, ptr %2, i32 0, i32 0
  %13 = extractvalue { ptr, i64 } %11, 0
  store ptr %13, ptr %12, align 8
  %14 = getelementptr inbounds nuw { ptr, i64 }, ptr %2, i32 0, i32 1
  %15 = extractvalue { ptr, i64 } %11, 1
  store i64 %15, ptr %14, align 8
  br label %17

16:                                               ; preds = %1
  call void @_ZN32pxrInternal_v0_24__pxrReserved__10PcpNodeRefC2Ev(ptr noundef nonnull align 8 dereferenceable(16) %2)
  br label %17

17:                                               ; preds = %16, %8
  %18 = load { ptr, i64 }, ptr %2, align 8
  ret { ptr, i64 } %18
}